; Listing generated by Microsoft (R) Optimizing Compiler Version 19.37.32822.0 

include listing.inc

INCLUDELIB MSVCRTD
INCLUDELIB OLDNAMES

msvcjmc	SEGMENT
__2972590E_concurrencysal@h DB 01H
__196CC136_sal@h DB 01H
__C395F66A_vadefs@h DB 01H
__D5C25611_vcruntime@h DB 01H
__1B0272D9_corecrt@h DB 01H
__44420885_corecrt_stdio_config@h DB 01H
__AB601D8D_corecrt_wstdio@h DB 01H
__C1EC35D3_stdio@h DB 01H
__3B9808C3_matrixmult@c DB 01H
msvcjmc	ENDS
PUBLIC	__local_stdio_printf_options
PUBLIC	_vfprintf_l
PUBLIC	printf
PUBLIC	matmult
PUBLIC	matadd
PUBLIC	printMatrix
PUBLIC	printFinal
PUBLIC	main
PUBLIC	__JustMyCode_Default
PUBLIC	??_C@_0P@NEABJOCO@?5?5?5?$FL?$CFd?5?$CFd?5?$CFd?$FN?6@ ; `string'
PUBLIC	??_C@_0BA@PPIELJPH@?$CFc?5?$DN?$HM?$CFd?5?$CFd?5?$CFd?$HM?6@ ; `string'
PUBLIC	??_C@_0BA@CGONOENL@?5?5?5?$FL?$CFd?5?$CFd?5?$CFd?$FN?6?6@ ; `string'
PUBLIC	??_C@_0BD@JLIENDAF@?5?5?5?5?5?5?5?$FL?$CFd?5?$CFd?5?$CFd?$FN?6@ ; `string'
PUBLIC	??_C@_0BA@LLOGCGLI@?$CFs?5?$DN?$HM?$CFd?5?$CFd?5?$CFd?$HM?6@ ; `string'
PUBLIC	??_C@_05ONCPPHMD@A?$CKB?$CLA@			; `string'
EXTRN	__imp___acrt_iob_func:PROC
EXTRN	__imp___stdio_common_vfprintf:PROC
EXTRN	_RTC_CheckStackVars:PROC
EXTRN	_RTC_InitBase:PROC
EXTRN	_RTC_Shutdown:PROC
EXTRN	__CheckForDebuggerJustMyCode:PROC
EXTRN	__GSHandlerCheck:PROC
EXTRN	__security_check_cookie:PROC
EXTRN	__security_cookie:QWORD
_DATA	SEGMENT
COMM	?_OptionsStorage@?1??__local_stdio_printf_options@@9@9:QWORD							; `__local_stdio_printf_options'::`2'::_OptionsStorage
_DATA	ENDS
;	COMDAT pdata
pdata	SEGMENT
$pdata$__local_stdio_printf_options DD imagerel $LN3
	DD	imagerel $LN3+44
	DD	imagerel $unwind$__local_stdio_printf_options
pdata	ENDS
;	COMDAT pdata
pdata	SEGMENT
$pdata$_vfprintf_l DD imagerel $LN3
	DD	imagerel $LN3+103
	DD	imagerel $unwind$_vfprintf_l
pdata	ENDS
;	COMDAT pdata
pdata	SEGMENT
$pdata$printf DD imagerel $LN3
	DD	imagerel $LN3+191
	DD	imagerel $unwind$printf
pdata	ENDS
;	COMDAT pdata
pdata	SEGMENT
$pdata$matmult DD imagerel $LN12
	DD	imagerel $LN12+292
	DD	imagerel $unwind$matmult
pdata	ENDS
;	COMDAT pdata
pdata	SEGMENT
$pdata$matadd DD imagerel $LN9
	DD	imagerel $LN9+186
	DD	imagerel $unwind$matadd
pdata	ENDS
;	COMDAT pdata
pdata	SEGMENT
$pdata$printMatrix DD imagerel $LN3
	DD	imagerel $LN3+461
	DD	imagerel $unwind$printMatrix
pdata	ENDS
;	COMDAT pdata
pdata	SEGMENT
$pdata$printFinal DD imagerel $LN3
	DD	imagerel $LN3+458
	DD	imagerel $unwind$printFinal
pdata	ENDS
;	COMDAT pdata
pdata	SEGMENT
$pdata$main DD	imagerel $LN3
	DD	imagerel $LN3+318
	DD	imagerel $unwind$main
pdata	ENDS
;	COMDAT rtc$TMZ
rtc$TMZ	SEGMENT
_RTC_Shutdown.rtc$TMZ DQ FLAT:_RTC_Shutdown
rtc$TMZ	ENDS
;	COMDAT rtc$IMZ
rtc$IMZ	SEGMENT
_RTC_InitBase.rtc$IMZ DQ FLAT:_RTC_InitBase
rtc$IMZ	ENDS
;	COMDAT ??_C@_05ONCPPHMD@A?$CKB?$CLA@
CONST	SEGMENT
??_C@_05ONCPPHMD@A?$CKB?$CLA@ DB 'A*B+A', 00H		; `string'
CONST	ENDS
;	COMDAT ??_C@_0BA@LLOGCGLI@?$CFs?5?$DN?$HM?$CFd?5?$CFd?5?$CFd?$HM?6@
CONST	SEGMENT
??_C@_0BA@LLOGCGLI@?$CFs?5?$DN?$HM?$CFd?5?$CFd?5?$CFd?$HM?6@ DB '%s =|%d '
	DB	'%d %d|', 0aH, 00H				; `string'
CONST	ENDS
;	COMDAT ??_C@_0BD@JLIENDAF@?5?5?5?5?5?5?5?$FL?$CFd?5?$CFd?5?$CFd?$FN?6@
CONST	SEGMENT
??_C@_0BD@JLIENDAF@?5?5?5?5?5?5?5?$FL?$CFd?5?$CFd?5?$CFd?$FN?6@ DB '     '
	DB	'  [%d %d %d]', 0aH, 00H			; `string'
CONST	ENDS
;	COMDAT ??_C@_0BA@CGONOENL@?5?5?5?$FL?$CFd?5?$CFd?5?$CFd?$FN?6?6@
CONST	SEGMENT
??_C@_0BA@CGONOENL@?5?5?5?$FL?$CFd?5?$CFd?5?$CFd?$FN?6?6@ DB '   [%d %d %'
	DB	'd]', 0aH, 0aH, 00H				; `string'
CONST	ENDS
;	COMDAT ??_C@_0BA@PPIELJPH@?$CFc?5?$DN?$HM?$CFd?5?$CFd?5?$CFd?$HM?6@
CONST	SEGMENT
??_C@_0BA@PPIELJPH@?$CFc?5?$DN?$HM?$CFd?5?$CFd?5?$CFd?$HM?6@ DB '%c =|%d '
	DB	'%d %d|', 0aH, 00H				; `string'
CONST	ENDS
;	COMDAT ??_C@_0P@NEABJOCO@?5?5?5?$FL?$CFd?5?$CFd?5?$CFd?$FN?6@
CONST	SEGMENT
??_C@_0P@NEABJOCO@?5?5?5?$FL?$CFd?5?$CFd?5?$CFd?$FN?6@ DB '   [%d %d %d]', 0aH
	DB	00H						; `string'
CONST	ENDS
;	COMDAT voltbl
voltbl	SEGMENT
_volmd	DW	02aH
	DW	0125H
voltbl	ENDS
;	COMDAT xdata
xdata	SEGMENT
$unwind$main DD	025053119H
	DD	010a230fH
	DD	07003003dH
	DD	05002H
	DD	imagerel __GSHandlerCheck
	DD	01d8H
xdata	ENDS
;	COMDAT CONST
CONST	SEGMENT
main$rtcName$0 DB 041H
	DB	00H
	ORG $+2
main$rtcName$1 DB 042H
	DB	00H
	ORG $+2
main$rtcName$2 DB 041H
	DB	042H
	DB	00H
	ORG $+1
main$rtcName$3 DB 066H
	DB	069H
	DB	06eH
	DB	061H
	DB	06cH
	DB	00H
	ORG $+14
main$rtcVarDesc DD 0e8H
	DD	024H
	DQ	FLAT:main$rtcName$3
	DD	0a8H
	DD	024H
	DQ	FLAT:main$rtcName$2
	DD	068H
	DD	024H
	DQ	FLAT:main$rtcName$1
	DD	028H
	DD	024H
	DQ	FLAT:main$rtcName$0
	ORG $+192
main$rtcFrameData DD 04H
	DD	00H
	DQ	FLAT:main$rtcVarDesc
CONST	ENDS
;	COMDAT xdata
xdata	SEGMENT
$unwind$printFinal DD 035051801H
	DD	01133318H
	DD	0700c0021H
	DD	0500bH
xdata	ENDS
;	COMDAT xdata
xdata	SEGMENT
$unwind$printMatrix DD 035051701H
	DD	01123317H
	DD	0700b0021H
	DD	0500aH
xdata	ENDS
;	COMDAT xdata
xdata	SEGMENT
$unwind$matadd DD 025051d01H
	DD	0118231dH
	DD	070110025H
	DD	05010H
xdata	ENDS
;	COMDAT xdata
xdata	SEGMENT
$unwind$matmult DD 025051d01H
	DD	0118231dH
	DD	070110029H
	DD	05010H
xdata	ENDS
;	COMDAT voltbl
voltbl	SEGMENT
_volmd	DB	045H
	DB	0a6H
voltbl	ENDS
;	COMDAT xdata
xdata	SEGMENT
$unwind$printf DD 025054c19H
	DD	011d2322H
	DD	070160025H
	DD	05015H
	DD	imagerel __GSHandlerCheck
	DD	0118H
xdata	ENDS
;	COMDAT CONST
CONST	SEGMENT
printf$rtcName$0 DB 05fH
	DB	041H
	DB	072H
	DB	067H
	DB	04cH
	DB	069H
	DB	073H
	DB	074H
	DB	00H
	ORG $+7
printf$rtcVarDesc DD 048H
	DD	08H
	DQ	FLAT:printf$rtcName$0
	ORG $+48
printf$rtcFrameData DD 01H
	DD	00H
	DQ	FLAT:printf$rtcVarDesc
CONST	ENDS
;	COMDAT xdata
xdata	SEGMENT
$unwind$_vfprintf_l DD 035052201H
	DD	011d3322H
	DD	07016001fH
	DD	05015H
xdata	ENDS
;	COMDAT xdata
xdata	SEGMENT
$unwind$__local_stdio_printf_options DD 025050f01H
	DD	010a230fH
	DD	07003001dH
	DD	05002H
xdata	ENDS
; Function compile flags: /Odt
;	COMDAT __JustMyCode_Default
_TEXT	SEGMENT
__JustMyCode_Default PROC				; COMDAT
	ret	0
__JustMyCode_Default ENDP
_TEXT	ENDS
; Function compile flags: /Odtp /RTCsu /ZI
;	COMDAT main
_TEXT	SEGMENT
A$ = 8
B$ = 72
AB$ = 136
final$ = 200
__$ArrayPad$ = 440
main	PROC						; COMDAT
; File C:\Users\csorg\source\repos\Homework #3 Simple C Program\Homework #3 Simple C Program\matrixmult.c
; Line 34
$LN3:
	push	rbp
	push	rdi
	sub	rsp, 488				; 000001e8H
	lea	rbp, QWORD PTR [rsp+32]
	lea	rdi, QWORD PTR [rsp+32]
	mov	ecx, 66					; 00000042H
	mov	eax, -858993460				; ccccccccH
	rep stosd
	mov	rax, QWORD PTR __security_cookie
	xor	rax, rbp
	mov	QWORD PTR __$ArrayPad$[rbp], rax
	lea	rcx, OFFSET FLAT:__3B9808C3_matrixmult@c
	call	__CheckForDebuggerJustMyCode
; Line 35
	mov	DWORD PTR A$[rbp], 1
	mov	DWORD PTR A$[rbp+4], 2
	mov	DWORD PTR A$[rbp+8], 3
	mov	DWORD PTR A$[rbp+12], 4
	mov	DWORD PTR A$[rbp+16], 5
	mov	DWORD PTR A$[rbp+20], 6
	mov	DWORD PTR A$[rbp+24], 7
	mov	DWORD PTR A$[rbp+28], 8
	mov	DWORD PTR A$[rbp+32], 9
; Line 36
	mov	DWORD PTR B$[rbp], 1
	mov	DWORD PTR B$[rbp+4], 2
	mov	DWORD PTR B$[rbp+8], 0
	mov	DWORD PTR B$[rbp+12], 3
	mov	DWORD PTR B$[rbp+16], 4
	mov	DWORD PTR B$[rbp+20], 5
	mov	DWORD PTR B$[rbp+24], 0
	mov	DWORD PTR B$[rbp+28], 6
	mov	DWORD PTR B$[rbp+32], 7
; Line 39
	lea	r8, QWORD PTR B$[rbp]
	lea	rdx, QWORD PTR A$[rbp]
	lea	rcx, QWORD PTR AB$[rbp]
	call	matmult
; Line 40
	lea	r8, QWORD PTR A$[rbp]
	lea	rdx, QWORD PTR AB$[rbp]
	lea	rcx, QWORD PTR final$[rbp]
	call	matadd
; Line 41
	lea	rdx, QWORD PTR A$[rbp]
	mov	cl, 65					; 00000041H
	call	printMatrix
; Line 42
	lea	rdx, QWORD PTR B$[rbp]
	mov	cl, 66					; 00000042H
	call	printMatrix
; Line 43
	lea	rdx, QWORD PTR final$[rbp]
	lea	rcx, OFFSET FLAT:??_C@_05ONCPPHMD@A?$CKB?$CLA@
	call	printFinal
; Line 45
	xor	eax, eax
; Line 46
	mov	edi, eax
	lea	rcx, QWORD PTR [rbp-32]
	lea	rdx, OFFSET FLAT:main$rtcFrameData
	call	_RTC_CheckStackVars
	mov	eax, edi
	mov	rcx, QWORD PTR __$ArrayPad$[rbp]
	xor	rcx, rbp
	call	__security_check_cookie
	lea	rsp, QWORD PTR [rbp+456]
	pop	rdi
	pop	rbp
	ret	0
main	ENDP
_TEXT	ENDS
; Function compile flags: /Odtp /RTCsu /ZI
;	COMDAT printFinal
_TEXT	SEGMENT
tv141 = 192
tv92 = 192
tv76 = 192
name$ = 240
mat$ = 248
printFinal PROC						; COMDAT
; File C:\Users\csorg\source\repos\Homework #3 Simple C Program\Homework #3 Simple C Program\matrixmult.c
; Line 28
$LN3:
	mov	QWORD PTR [rsp+16], rdx
	mov	QWORD PTR [rsp+8], rcx
	push	rbp
	push	rdi
	sub	rsp, 264				; 00000108H
	lea	rbp, QWORD PTR [rsp+48]
	lea	rcx, OFFSET FLAT:__3B9808C3_matrixmult@c
	call	__CheckForDebuggerJustMyCode
; Line 29
	mov	eax, 12
	imul	rax, rax, 0
	mov	rcx, QWORD PTR mat$[rbp]
	add	rcx, rax
	mov	rax, rcx
	mov	ecx, 4
	imul	rcx, rcx, 2
	mov	edx, 12
	imul	rdx, rdx, 0
	mov	r8, QWORD PTR mat$[rbp]
	add	r8, rdx
	mov	rdx, r8
	mov	r8d, 4
	imul	r8, r8, 1
	mov	r9d, 12
	imul	r9, r9, 0
	mov	r10, QWORD PTR mat$[rbp]
	add	r10, r9
	mov	r9, r10
	mov	QWORD PTR tv76[rbp], r9
	mov	r10d, 4
	imul	r10, r10, 0
	mov	r9d, DWORD PTR [rax+rcx]
	mov	r8d, DWORD PTR [rdx+r8]
	mov	rax, QWORD PTR tv76[rbp]
	mov	edx, DWORD PTR [rax+r10]
	lea	rcx, OFFSET FLAT:??_C@_0BD@JLIENDAF@?5?5?5?5?5?5?5?$FL?$CFd?5?$CFd?5?$CFd?$FN?6@
	call	printf
; Line 30
	mov	eax, 12
	imul	rax, rax, 1
	mov	rcx, QWORD PTR mat$[rbp]
	add	rcx, rax
	mov	rax, rcx
	mov	ecx, 4
	imul	rcx, rcx, 2
	mov	edx, 12
	imul	rdx, rdx, 1
	mov	r8, QWORD PTR mat$[rbp]
	add	r8, rdx
	mov	rdx, r8
	mov	r8d, 4
	imul	r8, r8, 1
	mov	r9d, 12
	imul	r9, r9, 1
	mov	r10, QWORD PTR mat$[rbp]
	add	r10, r9
	mov	r9, r10
	mov	QWORD PTR tv92[rbp], r9
	mov	r10d, 4
	imul	r10, r10, 0
	mov	eax, DWORD PTR [rax+rcx]
	mov	DWORD PTR [rsp+32], eax
	mov	r9d, DWORD PTR [rdx+r8]
	mov	rax, QWORD PTR tv92[rbp]
	mov	r8d, DWORD PTR [rax+r10]
	mov	rdx, QWORD PTR name$[rbp]
	lea	rcx, OFFSET FLAT:??_C@_0BA@LLOGCGLI@?$CFs?5?$DN?$HM?$CFd?5?$CFd?5?$CFd?$HM?6@
	call	printf
; Line 31
	mov	eax, 12
	imul	rax, rax, 2
	mov	rcx, QWORD PTR mat$[rbp]
	add	rcx, rax
	mov	rax, rcx
	mov	ecx, 4
	imul	rcx, rcx, 2
	mov	edx, 12
	imul	rdx, rdx, 2
	mov	r8, QWORD PTR mat$[rbp]
	add	r8, rdx
	mov	rdx, r8
	mov	r8d, 4
	imul	r8, r8, 1
	mov	r9d, 12
	imul	r9, r9, 2
	mov	r10, QWORD PTR mat$[rbp]
	add	r10, r9
	mov	r9, r10
	mov	QWORD PTR tv141[rbp], r9
	mov	r10d, 4
	imul	r10, r10, 0
	mov	r9d, DWORD PTR [rax+rcx]
	mov	r8d, DWORD PTR [rdx+r8]
	mov	rax, QWORD PTR tv141[rbp]
	mov	edx, DWORD PTR [rax+r10]
	lea	rcx, OFFSET FLAT:??_C@_0BD@JLIENDAF@?5?5?5?5?5?5?5?$FL?$CFd?5?$CFd?5?$CFd?$FN?6@
	call	printf
; Line 32
	lea	rsp, QWORD PTR [rbp+216]
	pop	rdi
	pop	rbp
	ret	0
printFinal ENDP
_TEXT	ENDS
; Function compile flags: /Odtp /RTCsu /ZI
;	COMDAT printMatrix
_TEXT	SEGMENT
tv142 = 192
tv92 = 192
tv76 = 192
name$ = 240
mat$ = 248
printMatrix PROC					; COMDAT
; File C:\Users\csorg\source\repos\Homework #3 Simple C Program\Homework #3 Simple C Program\matrixmult.c
; Line 22
$LN3:
	mov	QWORD PTR [rsp+16], rdx
	mov	BYTE PTR [rsp+8], cl
	push	rbp
	push	rdi
	sub	rsp, 264				; 00000108H
	lea	rbp, QWORD PTR [rsp+48]
	lea	rcx, OFFSET FLAT:__3B9808C3_matrixmult@c
	call	__CheckForDebuggerJustMyCode
; Line 23
	mov	eax, 12
	imul	rax, rax, 0
	mov	rcx, QWORD PTR mat$[rbp]
	add	rcx, rax
	mov	rax, rcx
	mov	ecx, 4
	imul	rcx, rcx, 2
	mov	edx, 12
	imul	rdx, rdx, 0
	mov	r8, QWORD PTR mat$[rbp]
	add	r8, rdx
	mov	rdx, r8
	mov	r8d, 4
	imul	r8, r8, 1
	mov	r9d, 12
	imul	r9, r9, 0
	mov	r10, QWORD PTR mat$[rbp]
	add	r10, r9
	mov	r9, r10
	mov	QWORD PTR tv76[rbp], r9
	mov	r10d, 4
	imul	r10, r10, 0
	mov	r9d, DWORD PTR [rax+rcx]
	mov	r8d, DWORD PTR [rdx+r8]
	mov	rax, QWORD PTR tv76[rbp]
	mov	edx, DWORD PTR [rax+r10]
	lea	rcx, OFFSET FLAT:??_C@_0P@NEABJOCO@?5?5?5?$FL?$CFd?5?$CFd?5?$CFd?$FN?6@
	call	printf
; Line 24
	mov	eax, 12
	imul	rax, rax, 1
	mov	rcx, QWORD PTR mat$[rbp]
	add	rcx, rax
	mov	rax, rcx
	mov	ecx, 4
	imul	rcx, rcx, 2
	mov	edx, 12
	imul	rdx, rdx, 1
	mov	r8, QWORD PTR mat$[rbp]
	add	r8, rdx
	mov	rdx, r8
	mov	r8d, 4
	imul	r8, r8, 1
	mov	r9d, 12
	imul	r9, r9, 1
	mov	r10, QWORD PTR mat$[rbp]
	add	r10, r9
	mov	r9, r10
	mov	QWORD PTR tv92[rbp], r9
	mov	r10d, 4
	imul	r10, r10, 0
	movsx	r11d, BYTE PTR name$[rbp]
	mov	eax, DWORD PTR [rax+rcx]
	mov	DWORD PTR [rsp+32], eax
	mov	r9d, DWORD PTR [rdx+r8]
	mov	rax, QWORD PTR tv92[rbp]
	mov	r8d, DWORD PTR [rax+r10]
	mov	edx, r11d
	lea	rcx, OFFSET FLAT:??_C@_0BA@PPIELJPH@?$CFc?5?$DN?$HM?$CFd?5?$CFd?5?$CFd?$HM?6@
	call	printf
; Line 25
	mov	eax, 12
	imul	rax, rax, 2
	mov	rcx, QWORD PTR mat$[rbp]
	add	rcx, rax
	mov	rax, rcx
	mov	ecx, 4
	imul	rcx, rcx, 2
	mov	edx, 12
	imul	rdx, rdx, 2
	mov	r8, QWORD PTR mat$[rbp]
	add	r8, rdx
	mov	rdx, r8
	mov	r8d, 4
	imul	r8, r8, 1
	mov	r9d, 12
	imul	r9, r9, 2
	mov	r10, QWORD PTR mat$[rbp]
	add	r10, r9
	mov	r9, r10
	mov	QWORD PTR tv142[rbp], r9
	mov	r10d, 4
	imul	r10, r10, 0
	mov	r9d, DWORD PTR [rax+rcx]
	mov	r8d, DWORD PTR [rdx+r8]
	mov	rax, QWORD PTR tv142[rbp]
	mov	edx, DWORD PTR [rax+r10]
	lea	rcx, OFFSET FLAT:??_C@_0BA@CGONOENL@?5?5?5?$FL?$CFd?5?$CFd?5?$CFd?$FN?6?6@
	call	printf
; Line 26
	lea	rsp, QWORD PTR [rbp+216]
	pop	rdi
	pop	rbp
	ret	0
printMatrix ENDP
_TEXT	ENDS
; Function compile flags: /Odtp /RTCsu /ZI
;	COMDAT matadd
_TEXT	SEGMENT
i$1 = 4
j$2 = 36
result$ = 288
first$ = 296
second$ = 304
matadd	PROC						; COMDAT
; File C:\Users\csorg\source\repos\Homework #3 Simple C Program\Homework #3 Simple C Program\matrixmult.c
; Line 14
$LN9:
	mov	QWORD PTR [rsp+24], r8
	mov	QWORD PTR [rsp+16], rdx
	mov	QWORD PTR [rsp+8], rcx
	push	rbp
	push	rdi
	sub	rsp, 296				; 00000128H
	lea	rbp, QWORD PTR [rsp+32]
	lea	rcx, OFFSET FLAT:__3B9808C3_matrixmult@c
	call	__CheckForDebuggerJustMyCode
; Line 15
	mov	DWORD PTR i$1[rbp], 0
	jmp	SHORT $LN4@matadd
$LN2@matadd:
	mov	eax, DWORD PTR i$1[rbp]
	inc	eax
	mov	DWORD PTR i$1[rbp], eax
$LN4@matadd:
	cmp	DWORD PTR i$1[rbp], 3
	jge	SHORT $LN3@matadd
; Line 16
	mov	DWORD PTR j$2[rbp], 0
	jmp	SHORT $LN7@matadd
$LN5@matadd:
	mov	eax, DWORD PTR j$2[rbp]
	inc	eax
	mov	DWORD PTR j$2[rbp], eax
$LN7@matadd:
	cmp	DWORD PTR j$2[rbp], 3
	jge	SHORT $LN6@matadd
; Line 17
	movsxd	rax, DWORD PTR i$1[rbp]
	imul	rax, rax, 12
	mov	rcx, QWORD PTR first$[rbp]
	add	rcx, rax
	mov	rax, rcx
	movsxd	rcx, DWORD PTR j$2[rbp]
	movsxd	rdx, DWORD PTR i$1[rbp]
	imul	rdx, rdx, 12
	mov	r8, QWORD PTR second$[rbp]
	add	r8, rdx
	mov	rdx, r8
	movsxd	r8, DWORD PTR j$2[rbp]
	mov	eax, DWORD PTR [rax+rcx*4]
	add	eax, DWORD PTR [rdx+r8*4]
	movsxd	rcx, DWORD PTR i$1[rbp]
	imul	rcx, rcx, 12
	mov	rdx, QWORD PTR result$[rbp]
	add	rdx, rcx
	mov	rcx, rdx
	movsxd	rdx, DWORD PTR j$2[rbp]
	mov	DWORD PTR [rcx+rdx*4], eax
; Line 18
	jmp	SHORT $LN5@matadd
$LN6@matadd:
; Line 19
	jmp	SHORT $LN2@matadd
$LN3@matadd:
; Line 20
	lea	rsp, QWORD PTR [rbp+264]
	pop	rdi
	pop	rbp
	ret	0
matadd	ENDP
_TEXT	ENDS
; Function compile flags: /Odtp /RTCsu /ZI
;	COMDAT matmult
_TEXT	SEGMENT
i$1 = 4
j$2 = 36
k$3 = 68
result$ = 320
first$ = 328
second$ = 336
matmult	PROC						; COMDAT
; File C:\Users\csorg\source\repos\Homework #3 Simple C Program\Homework #3 Simple C Program\matrixmult.c
; Line 3
$LN12:
	mov	QWORD PTR [rsp+24], r8
	mov	QWORD PTR [rsp+16], rdx
	mov	QWORD PTR [rsp+8], rcx
	push	rbp
	push	rdi
	sub	rsp, 328				; 00000148H
	lea	rbp, QWORD PTR [rsp+32]
	lea	rcx, OFFSET FLAT:__3B9808C3_matrixmult@c
	call	__CheckForDebuggerJustMyCode
; Line 4
	mov	DWORD PTR i$1[rbp], 0
	jmp	SHORT $LN4@matmult
$LN2@matmult:
	mov	eax, DWORD PTR i$1[rbp]
	inc	eax
	mov	DWORD PTR i$1[rbp], eax
$LN4@matmult:
	cmp	DWORD PTR i$1[rbp], 3
	jge	$LN3@matmult
; Line 5
	mov	DWORD PTR j$2[rbp], 0
	jmp	SHORT $LN7@matmult
$LN5@matmult:
	mov	eax, DWORD PTR j$2[rbp]
	inc	eax
	mov	DWORD PTR j$2[rbp], eax
$LN7@matmult:
	cmp	DWORD PTR j$2[rbp], 3
	jge	$LN6@matmult
; Line 6
	movsxd	rax, DWORD PTR i$1[rbp]
	imul	rax, rax, 12
	mov	rcx, QWORD PTR result$[rbp]
	add	rcx, rax
	mov	rax, rcx
	movsxd	rcx, DWORD PTR j$2[rbp]
	mov	DWORD PTR [rax+rcx*4], 0
; Line 7
	mov	DWORD PTR k$3[rbp], 0
	jmp	SHORT $LN10@matmult
$LN8@matmult:
	mov	eax, DWORD PTR k$3[rbp]
	inc	eax
	mov	DWORD PTR k$3[rbp], eax
$LN10@matmult:
	cmp	DWORD PTR k$3[rbp], 3
	jge	SHORT $LN9@matmult
; Line 8
	movsxd	rax, DWORD PTR i$1[rbp]
	imul	rax, rax, 12
	mov	rcx, QWORD PTR result$[rbp]
	add	rcx, rax
	mov	rax, rcx
	movsxd	rcx, DWORD PTR j$2[rbp]
	movsxd	rdx, DWORD PTR i$1[rbp]
	imul	rdx, rdx, 12
	mov	r8, QWORD PTR first$[rbp]
	add	r8, rdx
	mov	rdx, r8
	movsxd	r8, DWORD PTR k$3[rbp]
	movsxd	r9, DWORD PTR k$3[rbp]
	imul	r9, r9, 12
	mov	r10, QWORD PTR second$[rbp]
	add	r10, r9
	mov	r9, r10
	movsxd	r10, DWORD PTR j$2[rbp]
	mov	edx, DWORD PTR [rdx+r8*4]
	imul	edx, DWORD PTR [r9+r10*4]
	add	edx, DWORD PTR [rax+rcx*4]
	mov	eax, edx
	movsxd	rcx, DWORD PTR j$2[rbp]
	movsxd	rdx, DWORD PTR i$1[rbp]
	imul	rdx, rdx, 12
	mov	r8, QWORD PTR result$[rbp]
	add	r8, rdx
	mov	rdx, r8
	mov	DWORD PTR [rdx+rcx*4], eax
; Line 9
	jmp	$LN8@matmult
$LN9@matmult:
; Line 10
	jmp	$LN5@matmult
$LN6@matmult:
; Line 11
	jmp	$LN2@matmult
$LN3@matmult:
; Line 12
	lea	rsp, QWORD PTR [rbp+296]
	pop	rdi
	pop	rbp
	ret	0
matmult	ENDP
_TEXT	ENDS
; Function compile flags: /Odtp /RTCsu /ZI
;	COMDAT printf
_TEXT	SEGMENT
_Result$ = 4
_ArgList$ = 40
__$ArrayPad$ = 248
_Format$ = 288
printf	PROC						; COMDAT
; File C:\Program Files (x86)\Windows Kits\10\Include\10.0.22621.0\ucrt\stdio.h
; Line 956
$LN3:
	mov	QWORD PTR [rsp+8], rcx
	mov	QWORD PTR [rsp+16], rdx
	mov	QWORD PTR [rsp+24], r8
	mov	QWORD PTR [rsp+32], r9
	push	rbp
	push	rdi
	sub	rsp, 296				; 00000128H
	lea	rbp, QWORD PTR [rsp+32]
	lea	rdi, QWORD PTR [rsp+32]
	mov	ecx, 18
	mov	eax, -858993460				; ccccccccH
	rep stosd
	mov	rcx, QWORD PTR [rsp+328]
	mov	rax, QWORD PTR __security_cookie
	xor	rax, rbp
	mov	QWORD PTR __$ArrayPad$[rbp], rax
	lea	rcx, OFFSET FLAT:__C1EC35D3_stdio@h
	call	__CheckForDebuggerJustMyCode
; Line 959
	lea	rax, QWORD PTR _Format$[rbp+8]
	mov	QWORD PTR _ArgList$[rbp], rax
; Line 960
	mov	ecx, 1
	call	QWORD PTR __imp___acrt_iob_func
	mov	r9, QWORD PTR _ArgList$[rbp]
	xor	r8d, r8d
	mov	rdx, QWORD PTR _Format$[rbp]
	mov	rcx, rax
	call	_vfprintf_l
	mov	DWORD PTR _Result$[rbp], eax
; Line 961
	mov	QWORD PTR _ArgList$[rbp], 0
; Line 962
	mov	eax, DWORD PTR _Result$[rbp]
; Line 963
	mov	edi, eax
	lea	rcx, QWORD PTR [rbp-32]
	lea	rdx, OFFSET FLAT:printf$rtcFrameData
	call	_RTC_CheckStackVars
	mov	eax, edi
	mov	rcx, QWORD PTR __$ArrayPad$[rbp]
	xor	rcx, rbp
	call	__security_check_cookie
	lea	rsp, QWORD PTR [rbp+264]
	pop	rdi
	pop	rbp
	ret	0
printf	ENDP
_TEXT	ENDS
; Function compile flags: /Odtp /RTCsu /ZI
;	COMDAT _vfprintf_l
_TEXT	SEGMENT
_Stream$ = 224
_Format$ = 232
_Locale$ = 240
_ArgList$ = 248
_vfprintf_l PROC					; COMDAT
; File C:\Program Files (x86)\Windows Kits\10\Include\10.0.22621.0\ucrt\stdio.h
; Line 644
$LN3:
	mov	QWORD PTR [rsp+32], r9
	mov	QWORD PTR [rsp+24], r8
	mov	QWORD PTR [rsp+16], rdx
	mov	QWORD PTR [rsp+8], rcx
	push	rbp
	push	rdi
	sub	rsp, 248				; 000000f8H
	lea	rbp, QWORD PTR [rsp+48]
	lea	rcx, OFFSET FLAT:__C1EC35D3_stdio@h
	call	__CheckForDebuggerJustMyCode
; Line 645
	call	__local_stdio_printf_options
	mov	rcx, QWORD PTR _ArgList$[rbp]
	mov	QWORD PTR [rsp+32], rcx
	mov	r9, QWORD PTR _Locale$[rbp]
	mov	r8, QWORD PTR _Format$[rbp]
	mov	rdx, QWORD PTR _Stream$[rbp]
	mov	rcx, QWORD PTR [rax]
	call	QWORD PTR __imp___stdio_common_vfprintf
; Line 646
	lea	rsp, QWORD PTR [rbp+200]
	pop	rdi
	pop	rbp
	ret	0
_vfprintf_l ENDP
_TEXT	ENDS
; Function compile flags: /Odtp /RTCsu /ZI
;	COMDAT __local_stdio_printf_options
_TEXT	SEGMENT
__local_stdio_printf_options PROC			; COMDAT
; File C:\Program Files (x86)\Windows Kits\10\Include\10.0.22621.0\ucrt\corecrt_stdio_config.h
; Line 90
$LN3:
	push	rbp
	push	rdi
	sub	rsp, 232				; 000000e8H
	lea	rbp, QWORD PTR [rsp+32]
	lea	rcx, OFFSET FLAT:__44420885_corecrt_stdio_config@h
	call	__CheckForDebuggerJustMyCode
; Line 92
	lea	rax, OFFSET FLAT:?_OptionsStorage@?1??__local_stdio_printf_options@@9@9 ; `__local_stdio_printf_options'::`2'::_OptionsStorage
; Line 93
	lea	rsp, QWORD PTR [rbp+200]
	pop	rdi
	pop	rbp
	ret	0
__local_stdio_printf_options ENDP
_TEXT	ENDS
END
